#include <math.h>
#include <stdio.h>
#include <stdlib.h>
#include <string.h>


void main()
{
	int a[300]={0},b[300]={0},i,j,k,n,l;
	scanf("%d",&n);
	for(i=0;i<n;i++) scanf("%d",&a[i]);
	b[0]=a[0];
	l=1;
	for(i=1;i<n;i++)
	{
		k=1;
		for(j=0;j<l;j++) if(a[i]==b[j]) k=0;
		if(k) {b[l]=a[i];l++;}
	}
	printf("%d",b[0]);
	for(i=1;i<l;i++) printf(",%d",b[i]);
	putchar('\n');
}